; Function Attrs: nounwind uwtable
define hidden void @commonRef_releaseMultiple(ptr noundef %0, i64 noundef %1, i32 noundef %2) local_unnamed_addr #0 {
  %4 = load ptr, ptr @gdata, align 8
  %5 = getelementptr inbounds i8, ptr %4, i64 536
  %6 = load ptr, ptr %5, align 8
  tail call void @debugMonitorEnter(ptr noundef %6) #5
  tail call fastcc void @deleteNodeByID(ptr noundef %0, i64 noundef %1, i32 noundef %2)
  %7 = load ptr, ptr @gdata, align 8
  %8 = getelementptr inbounds i8, ptr %7, i64 536
  %9 = load ptr, ptr %8, align 8
  tail call void @debugMonitorExit(ptr noundef %9) #5
  ret void
}